target datalayout = "e-m:e-p270:32:32-p271:32:32-p272:64:64-i64:64-i128:128-f80:128-n8:16:32:64-S128"
target triple = "x86_64-pc-linux-gnu"

%struct.AVFifo = type { ptr, i64, i64, i64, i64, i32, i32, i64 }

; Function Attrs: nounwind uwtable
define i64 @av_fifo_can_read(ptr noundef %0) #0 {
  %2 = alloca i64, align 8
  %3 = alloca ptr, align 8
  store ptr %0, ptr %3, align 8, !tbaa !12
  %4 = load ptr, ptr %3, align 8, !tbaa !12
  %5 = getelementptr inbounds nuw %struct.AVFifo, ptr %4, i32 0, i32 4
  %6 = load i64, ptr %5, align 8, !tbaa !22
  %7 = load ptr, ptr %3, align 8, !tbaa !12
  %8 = getelementptr inbounds nuw %struct.AVFifo, ptr %7, i32 0, i32 3
  %9 = load i64, ptr %8, align 8, !tbaa !23
  %10 = icmp ule i64 %6, %9
  br i1 %10, label %11, label %28

11:                                               ; preds = %1
  %12 = load ptr, ptr %3, align 8, !tbaa !12
  %13 = getelementptr inbounds nuw %struct.AVFifo, ptr %12, i32 0, i32 5
  %14 = load i32, ptr %13, align 8, !tbaa !19
  %15 = icmp ne i32 %14, 0
  br i1 %15, label %28, label %16

16:                                               ; preds = %11
  %17 = load ptr, ptr %3, align 8, !tbaa !12
  %18 = getelementptr inbounds nuw %struct.AVFifo, ptr %17, i32 0, i32 2
  %19 = load i64, ptr %18, align 8, !tbaa !17
  %20 = load ptr, ptr %3, align 8, !tbaa !12
  %21 = getelementptr inbounds nuw %struct.AVFifo, ptr %20, i32 0, i32 3
  %22 = load i64, ptr %21, align 8, !tbaa !23
  %23 = sub i64 %19, %22
  %24 = load ptr, ptr %3, align 8, !tbaa !12
  %25 = getelementptr inbounds nuw %struct.AVFifo, ptr %24, i32 0, i32 4
  %26 = load i64, ptr %25, align 8, !tbaa !22
  %27 = add i64 %23, %26
  store i64 %27, ptr %2, align 8
  br label %36

28:                                               ; preds = %11, %1
  %29 = load ptr, ptr %3, align 8, !tbaa !12
  %30 = getelementptr inbounds nuw %struct.AVFifo, ptr %29, i32 0, i32 4
  %31 = load i64, ptr %30, align 8, !tbaa !22
  %32 = load ptr, ptr %3, align 8, !tbaa !12
  %33 = getelementptr inbounds nuw %struct.AVFifo, ptr %32, i32 0, i32 3
  %34 = load i64, ptr %33, align 8, !tbaa !23
  %35 = sub i64 %31, %34
  store i64 %35, ptr %2, align 8
  br label %36

36:                                               ; preds = %28, %16
  %37 = load i64, ptr %2, align 8
  ret i64 %37
}