; Function Attrs: mustprogress nofree norecurse nosync nounwind willreturn memory(argmem: read) uwtable
define i64 @av_fifo_can_read(ptr noundef readonly captures(none) %0) local_unnamed_addr #4 {
  %2 = getelementptr inbounds nuw i8, ptr %0, i64 32
  %3 = load i64, ptr %2, align 8, !tbaa !17
  %4 = getelementptr inbounds nuw i8, ptr %0, i64 24
  %5 = load i64, ptr %4, align 8, !tbaa !18
  %.not = icmp ugt i64 %3, %5
  br i1 %.not, label %14, label %6

6:                                                ; preds = %1
  %7 = getelementptr inbounds nuw i8, ptr %0, i64 40
  %8 = load i32, ptr %7, align 8, !tbaa !14
  %.not10 = icmp eq i32 %8, 0
  br i1 %.not10, label %9, label %14

9:                                                ; preds = %6
  %10 = getelementptr inbounds nuw i8, ptr %0, i64 16
  %11 = load i64, ptr %10, align 8, !tbaa !12
  %12 = sub i64 %3, %5
  %13 = add i64 %12, %11
  br label %16

14:                                               ; preds = %6, %1
  %15 = sub i64 %3, %5
  br label %16

16:                                               ; preds = %14, %9
  %.0 = phi i64 [ %15, %14 ], [ %13, %9 ]
  ret i64 %.0
}